target datalayout = "e-m:e-p270:32:32-p271:32:32-p272:64:64-i64:64-i128:128-f80:128-n8:16:32:64-S128"
target triple = "x86_64-unknown-linux-gnu"

%struct.AddressSpace = type { %struct.rcu_head, ptr, ptr, ptr, i32, i32, ptr, %union.anon.2, %union.anon.3 }
%struct.rcu_head = type { ptr, ptr }
%union.anon.2 = type { %struct.QTailQLink }
%struct.QTailQLink = type { ptr, ptr }
%union.anon.3 = type { %struct.QTailQLink }
%struct.VirtioBusClass = type { %struct.BusClass, ptr, ptr, ptr, ptr, ptr, ptr, ptr, ptr, ptr, ptr, ptr, ptr, ptr, ptr, ptr, ptr, ptr, ptr, ptr, ptr, i8, ptr, ptr }
%struct.BusClass = type { %struct.ObjectClass, ptr, ptr, ptr, ptr, ptr, ptr, ptr, i32, i32 }
%struct.ObjectClass = type { ptr, ptr, [4 x ptr], [4 x ptr], ptr, ptr }
%struct.BusState = type { %struct.Object, ptr, ptr, ptr, i32, i8, i8, i32, %union.BusChildHead, %struct.BusStateEntry, %struct.ResettableState }
%struct.Object = type { ptr, ptr, ptr, i32, ptr }
%union.BusChildHead = type { %struct.QTailQLink }
%struct.BusStateEntry = type { ptr, ptr }
%struct.ResettableState = type { i32, i8, i8 }
%struct.VirtioDeviceClass = type { %struct.DeviceClass, ptr, ptr, ptr, ptr, ptr, ptr, ptr, ptr, ptr, ptr, ptr, ptr, i64, ptr, ptr, ptr, ptr, ptr, ptr, ptr, ptr, ptr, ptr, ptr }
%struct.DeviceClass = type { %struct.ObjectClass, [1 x i64], ptr, ptr, ptr, i8, i8, ptr, ptr, ptr, ptr, ptr }
%struct.VirtIODevice = type { %struct.DeviceState, ptr, i8, i8, i16, i64, i64, i64, i64, ptr, i16, i32, i32, ptr, %struct.MemoryListener, i16, i8, i8, i8, i8, i8, i8, i8, i8, i8, ptr, ptr, i8, i8, ptr, ptr, %union.anon.1, %struct.EventNotifier, i8 }
%struct.DeviceState = type { %struct.Object, ptr, ptr, i8, i8, i64, ptr, i32, i8, ptr, %struct.NamedGPIOListHead, %struct.NamedClockListHead, %struct.BusStateHead, i32, i32, i32, %struct.ResettableState, ptr, %struct.MemReentrancyGuard }
%struct.NamedGPIOListHead = type { ptr }
%struct.NamedClockListHead = type { ptr }
%struct.BusStateHead = type { ptr }
%struct.MemReentrancyGuard = type { i8 }
%struct.MemoryListener = type { ptr, ptr, ptr, ptr, ptr, ptr, ptr, ptr, ptr, ptr, ptr, ptr, ptr, ptr, ptr, ptr, ptr, i32, ptr, ptr, %union.anon, %union.anon.0 }
%union.anon = type { %struct.QTailQLink }
%union.anon.0 = type { %struct.QTailQLink }
%union.anon.1 = type { %struct.QTailQLink }
%struct.EventNotifier = type { i32, i32, i8 }

@.str = private unnamed_addr constant [26 x i8] c"vdc->get_features != NULL\00", align 1
@.str.1 = private unnamed_addr constant [31 x i8] c"../qemu/hw/virtio/virtio-bus.c\00", align 1
@__PRETTY_FUNCTION__.virtio_bus_device_plugged = private unnamed_addr constant [57 x i8] c"void virtio_bus_device_plugged(VirtIODevice *, Error **)\00", align 1
@address_space_memory = external global %struct.AddressSpace, align 8
@__func__.virtio_bus_device_plugged = private unnamed_addr constant [26 x i8] c"virtio_bus_device_plugged\00", align 1
@.str.2 = private unnamed_addr constant [51 x i8] c"iommu_platform=true is not supported by the device\00", align 1
@.str.8 = private unnamed_addr constant [7 x i8] c"device\00", align 1
@.str.9 = private unnamed_addr constant [101 x i8] c"/home/dtcxzyw/WorkSpace/Projects/compilers/llvm-opt-benchmark/bench/qemu/qemu/include/hw/qdev-core.h\00", align 1
@__func__.DEVICE = private unnamed_addr constant [7 x i8] c"DEVICE\00", align 1
@.str.10 = private unnamed_addr constant [4 x i8] c"bus\00", align 1
@__func__.BUS = private unnamed_addr constant [4 x i8] c"BUS\00", align 1
@.str.11 = private unnamed_addr constant [11 x i8] c"virtio-bus\00", align 1
@.str.12 = private unnamed_addr constant [109 x i8] c"/home/dtcxzyw/WorkSpace/Projects/compilers/llvm-opt-benchmark/bench/qemu/qemu/include/hw/virtio/virtio-bus.h\00", align 1
@__func__.VIRTIO_BUS = private unnamed_addr constant [11 x i8] c"VIRTIO_BUS\00", align 1
@__func__.VIRTIO_BUS_GET_CLASS = private unnamed_addr constant [21 x i8] c"VIRTIO_BUS_GET_CLASS\00", align 1
@.str.13 = private unnamed_addr constant [14 x i8] c"virtio-device\00", align 1
@.str.14 = private unnamed_addr constant [105 x i8] c"/home/dtcxzyw/WorkSpace/Projects/compilers/llvm-opt-benchmark/bench/qemu/qemu/include/hw/virtio/virtio.h\00", align 1
@__func__.VIRTIO_DEVICE_GET_CLASS = private unnamed_addr constant [24 x i8] c"VIRTIO_DEVICE_GET_CLASS\00", align 1
@.str.15 = private unnamed_addr constant [10 x i8] c"fbit < 64\00", align 1
@__PRETTY_FUNCTION__.virtio_has_feature = private unnamed_addr constant [49 x i8] c"_Bool virtio_has_feature(uint64_t, unsigned int)\00", align 1
@__PRETTY_FUNCTION__.virtio_add_feature = private unnamed_addr constant [50 x i8] c"void virtio_add_feature(uint64_t *, unsigned int)\00", align 1

; Function Attrs: nounwind sspstrong uwtable
define internal zeroext i1 @virtio_has_feature(i64 noundef %features, i32 noundef %fbit) #0 {
entry:
  %features.addr = alloca i64, align 8
  %fbit.addr = alloca i32, align 4
  store i64 %features, ptr %features.addr, align 8
  store i32 %fbit, ptr %fbit.addr, align 4
  %0 = load i32, ptr %fbit.addr, align 4
  %cmp = icmp ult i32 %0, 64
  br i1 %cmp, label %if.then, label %if.else

if.then:                                          ; preds = %entry
  br label %if.end

if.else:                                          ; preds = %entry
  call void @__assert_fail(ptr noundef @.str.15, ptr noundef @.str.14, i32 noundef 422, ptr noundef @__PRETTY_FUNCTION__.virtio_has_feature) #4
  unreachable

if.end:                                           ; preds = %if.then
  %1 = load i64, ptr %features.addr, align 8
  %2 = load i32, ptr %fbit.addr, align 4
  %sh_prom = zext i32 %2 to i64
  %shl = shl i64 1, %sh_prom
  %and = and i64 %1, %shl
  %tobool = icmp ne i64 %and, 0
  %lnot = xor i1 %tobool, true
  %lnot1 = xor i1 %lnot, true
  ret i1 %lnot1
}

; Function Attrs: nounwind sspstrong uwtable
define internal void @virtio_add_feature(ptr noundef %features, i32 noundef %fbit) #0 {
entry:
  %features.addr = alloca ptr, align 8
  %fbit.addr = alloca i32, align 4
  store ptr %features, ptr %features.addr, align 8
  store i32 %fbit, ptr %fbit.addr, align 4
  %0 = load i32, ptr %fbit.addr, align 4
  %cmp = icmp ult i32 %0, 64
  br i1 %cmp, label %if.then, label %if.else

if.then:                                          ; preds = %entry
  br label %if.end

if.else:                                          ; preds = %entry
  call void @__assert_fail(ptr noundef @.str.15, ptr noundef @.str.14, i32 noundef 410, ptr noundef @__PRETTY_FUNCTION__.virtio_add_feature) #4
  unreachable

if.end:                                           ; preds = %if.then
  %1 = load i32, ptr %fbit.addr, align 4
  %sh_prom = zext i32 %1 to i64
  %shl = shl i64 1, %sh_prom
  %2 = load ptr, ptr %features.addr, align 8
  %3 = load i64, ptr %2, align 8
  %or = or i64 %3, %shl
  store i64 %or, ptr %2, align 8
  ret void
}

; Function Attrs: nounwind sspstrong uwtable
define internal zeroext i1 @virtio_host_has_feature(ptr noundef %vdev, i32 noundef %fbit) #0 {
entry:
  %vdev.addr = alloca ptr, align 8
  %fbit.addr = alloca i32, align 4
  store ptr %vdev, ptr %vdev.addr, align 8
  store i32 %fbit, ptr %fbit.addr, align 4
  %0 = load ptr, ptr %vdev.addr, align 8
  %host_features = getelementptr inbounds %struct.VirtIODevice, ptr %0, i32 0, i32 5
  %1 = load i64, ptr %host_features, align 8
  %2 = load i32, ptr %fbit.addr, align 4
  %call = call zeroext i1 @virtio_has_feature(i64 noundef %1, i32 noundef %2)
  ret i1 %call
}

; Function Attrs: nounwind sspstrong uwtable
define internal ptr @VIRTIO_DEVICE_GET_CLASS(ptr noundef %obj) #0 {
entry:
  %obj.addr = alloca ptr, align 8
  store ptr %obj, ptr %obj.addr, align 8
  %0 = load ptr, ptr %obj.addr, align 8
  %call = call ptr @object_get_class(ptr noundef %0)
  %call1 = call ptr @object_class_dynamic_cast_assert(ptr noundef %call, ptr noundef @.str.13, ptr noundef @.str.14, i32 noundef 85, ptr noundef @__func__.VIRTIO_DEVICE_GET_CLASS)
  ret ptr %call1
}

; Function Attrs: nounwind sspstrong uwtable
define internal ptr @VIRTIO_BUS_GET_CLASS(ptr noundef %obj) #0 {
entry:
  %obj.addr = alloca ptr, align 8
  store ptr %obj, ptr %obj.addr, align 8
  %0 = load ptr, ptr %obj.addr, align 8
  %call = call ptr @object_get_class(ptr noundef %0)
  %call1 = call ptr @object_class_dynamic_cast_assert(ptr noundef %call, ptr noundef @.str.11, ptr noundef @.str.12, i32 noundef 36, ptr noundef @__func__.VIRTIO_BUS_GET_CLASS)
  ret ptr %call1
}

; Function Attrs: nounwind sspstrong uwtable
define internal ptr @VIRTIO_BUS(ptr noundef %obj) #0 {
entry:
  %obj.addr = alloca ptr, align 8
  store ptr %obj, ptr %obj.addr, align 8
  %0 = load ptr, ptr %obj.addr, align 8
  %call = call ptr @object_dynamic_cast_assert(ptr noundef %0, ptr noundef @.str.11, ptr noundef @.str.12, i32 noundef 36, ptr noundef @__func__.VIRTIO_BUS)
  ret ptr %call
}

; Function Attrs: nounwind sspstrong uwtable
define internal ptr @BUS(ptr noundef %obj) #0 {
entry:
  %obj.addr = alloca ptr, align 8
  store ptr %obj, ptr %obj.addr, align 8
  %0 = load ptr, ptr %obj.addr, align 8
  %call = call ptr @object_dynamic_cast_assert(ptr noundef %0, ptr noundef @.str.10, ptr noundef @.str.9, i32 noundef 316, ptr noundef @__func__.BUS)
  ret ptr %call
}

; Function Attrs: nounwind sspstrong uwtable
define internal ptr @DEVICE(ptr noundef %obj) #0 {
entry:
  %obj.addr = alloca ptr, align 8
  store ptr %obj, ptr %obj.addr, align 8
  %0 = load ptr, ptr %obj.addr, align 8
  %call = call ptr @object_dynamic_cast_assert(ptr noundef %0, ptr noundef @.str.8, ptr noundef @.str.9, i32 noundef 77, ptr noundef @__func__.DEVICE)
  ret ptr %call
}

; Function Attrs: nounwind sspstrong uwtable
define dso_local void @virtio_bus_device_plugged(ptr noundef %vdev, ptr noundef %errp) #0 {
entry:
  %vdev.addr = alloca ptr, align 8
  %errp.addr = alloca ptr, align 8
  %qdev = alloca ptr, align 8
  %qbus = alloca ptr, align 8
  %bus = alloca ptr, align 8
  %klass = alloca ptr, align 8
  %vdc = alloca ptr, align 8
  %has_iommu = alloca i8, align 1
  %vdev_has_iommu = alloca i8, align 1
  %local_err = alloca ptr, align 8
  store ptr %vdev, ptr %vdev.addr, align 8
  store ptr %errp, ptr %errp.addr, align 8
  %0 = load ptr, ptr %vdev.addr, align 8
  %call = call ptr @DEVICE(ptr noundef %0)
  store ptr %call, ptr %qdev, align 8
  %1 = load ptr, ptr %qdev, align 8
  %call1 = call ptr @qdev_get_parent_bus(ptr noundef %1)
  %call2 = call ptr @BUS(ptr noundef %call1)
  store ptr %call2, ptr %qbus, align 8
  %2 = load ptr, ptr %qbus, align 8
  %call3 = call ptr @VIRTIO_BUS(ptr noundef %2)
  store ptr %call3, ptr %bus, align 8
  %3 = load ptr, ptr %bus, align 8
  %call4 = call ptr @VIRTIO_BUS_GET_CLASS(ptr noundef %3)
  store ptr %call4, ptr %klass, align 8
  %4 = load ptr, ptr %vdev.addr, align 8
  %call5 = call ptr @VIRTIO_DEVICE_GET_CLASS(ptr noundef %4)
  store ptr %call5, ptr %vdc, align 8
  %5 = load ptr, ptr %vdev.addr, align 8
  %call6 = call zeroext i1 @virtio_host_has_feature(ptr noundef %5, i32 noundef 33)
  %frombool = zext i1 %call6 to i8
  store i8 %frombool, ptr %has_iommu, align 1
  store ptr null, ptr %local_err, align 8
  br label %do.body

do.body:                                          ; preds = %entry
  br label %do.end

do.end:                                           ; preds = %do.body
  %6 = load ptr, ptr %klass, align 8
  %pre_plugged = getelementptr inbounds %struct.VirtioBusClass, ptr %6, i32 0, i32 14
  %7 = load ptr, ptr %pre_plugged, align 8
  %cmp = icmp ne ptr %7, null
  br i1 %cmp, label %if.then, label %if.end9

if.then:                                          ; preds = %do.end
  %8 = load ptr, ptr %klass, align 8
  %pre_plugged7 = getelementptr inbounds %struct.VirtioBusClass, ptr %8, i32 0, i32 14
  %9 = load ptr, ptr %pre_plugged7, align 8
  %10 = load ptr, ptr %qbus, align 8
  %parent = getelementptr inbounds %struct.BusState, ptr %10, i32 0, i32 1
  %11 = load ptr, ptr %parent, align 8
  call void %9(ptr noundef %11, ptr noundef %local_err)
  %12 = load ptr, ptr %local_err, align 8
  %tobool = icmp ne ptr %12, null
  br i1 %tobool, label %if.then8, label %if.end

if.then8:                                         ; preds = %if.then
  %13 = load ptr, ptr %errp.addr, align 8
  %14 = load ptr, ptr %local_err, align 8
  call void @error_propagate(ptr noundef %13, ptr noundef %14)
  br label %if.end44

if.end:                                           ; preds = %if.then
  br label %if.end9

if.end9:                                          ; preds = %if.end, %do.end
  %15 = load ptr, ptr %vdc, align 8
  %get_features = getelementptr inbounds %struct.VirtioDeviceClass, ptr %15, i32 0, i32 3
  %16 = load ptr, ptr %get_features, align 8
  %cmp10 = icmp ne ptr %16, null
  br i1 %cmp10, label %if.then11, label %if.else

if.then11:                                        ; preds = %if.end9
  br label %if.end12

if.else:                                          ; preds = %if.end9
  call void @__assert_fail(ptr noundef @.str, ptr noundef @.str.1, i32 noundef 65, ptr noundef @__PRETTY_FUNCTION__.virtio_bus_device_plugged) #4
  unreachable

if.end12:                                         ; preds = %if.then11
  %17 = load ptr, ptr %vdc, align 8
  %get_features13 = getelementptr inbounds %struct.VirtioDeviceClass, ptr %17, i32 0, i32 3
  %18 = load ptr, ptr %get_features13, align 8
  %19 = load ptr, ptr %vdev.addr, align 8
  %20 = load ptr, ptr %vdev.addr, align 8
  %host_features = getelementptr inbounds %struct.VirtIODevice, ptr %20, i32 0, i32 5
  %21 = load i64, ptr %host_features, align 8
  %call14 = call i64 %18(ptr noundef %19, i64 noundef %21, ptr noundef %local_err)
  %22 = load ptr, ptr %vdev.addr, align 8
  %host_features15 = getelementptr inbounds %struct.VirtIODevice, ptr %22, i32 0, i32 5
  store i64 %call14, ptr %host_features15, align 8
  %23 = load ptr, ptr %local_err, align 8
  %tobool16 = icmp ne ptr %23, null
  br i1 %tobool16, label %if.then17, label %if.end18

if.then17:                                        ; preds = %if.end12
  %24 = load ptr, ptr %errp.addr, align 8
  %25 = load ptr, ptr %local_err, align 8
  call void @error_propagate(ptr noundef %24, ptr noundef %25)
  br label %if.end44

if.end18:                                         ; preds = %if.end12
  %26 = load ptr, ptr %klass, align 8
  %device_plugged = getelementptr inbounds %struct.VirtioBusClass, ptr %26, i32 0, i32 15
  %27 = load ptr, ptr %device_plugged, align 8
  %cmp19 = icmp ne ptr %27, null
  br i1 %cmp19, label %if.then20, label %if.end23

if.then20:                                        ; preds = %if.end18
  %28 = load ptr, ptr %klass, align 8
  %device_plugged21 = getelementptr inbounds %struct.VirtioBusClass, ptr %28, i32 0, i32 15
  %29 = load ptr, ptr %device_plugged21, align 8
  %30 = load ptr, ptr %qbus, align 8
  %parent22 = getelementptr inbounds %struct.BusState, ptr %30, i32 0, i32 1
  %31 = load ptr, ptr %parent22, align 8
  call void %29(ptr noundef %31, ptr noundef %local_err)
  br label %if.end23

if.end23:                                         ; preds = %if.then20, %if.end18
  %32 = load ptr, ptr %local_err, align 8
  %tobool24 = icmp ne ptr %32, null
  br i1 %tobool24, label %if.then25, label %if.end26

if.then25:                                        ; preds = %if.end23
  %33 = load ptr, ptr %errp.addr, align 8
  %34 = load ptr, ptr %local_err, align 8
  call void @error_propagate(ptr noundef %33, ptr noundef %34)
  br label %if.end44

if.end26:                                         ; preds = %if.end23
  %35 = load ptr, ptr %vdev.addr, align 8
  %dma_as = getelementptr inbounds %struct.VirtIODevice, ptr %35, i32 0, i32 29
  store ptr @address_space_memory, ptr %dma_as, align 8
  %36 = load i8, ptr %has_iommu, align 1
  %tobool27 = trunc i8 %36 to i1
  br i1 %tobool27, label %if.then28, label %if.end44

if.then28:                                        ; preds = %if.end26
  %37 = load ptr, ptr %vdev.addr, align 8
  %call29 = call zeroext i1 @virtio_host_has_feature(ptr noundef %37, i32 noundef 33)
  %frombool30 = zext i1 %call29 to i8
  store i8 %frombool30, ptr %vdev_has_iommu, align 1
  %38 = load ptr, ptr %vdev.addr, align 8
  %host_features31 = getelementptr inbounds %struct.VirtIODevice, ptr %38, i32 0, i32 5
  call void @virtio_add_feature(ptr noundef %host_features31, i32 noundef 33)
  %39 = load ptr, ptr %klass, align 8
  %get_dma_as = getelementptr inbounds %struct.VirtioBusClass, ptr %39, i32 0, i32 22
  %40 = load ptr, ptr %get_dma_as, align 8
  %tobool32 = icmp ne ptr %40, null
  br i1 %tobool32, label %if.then33, label %if.end43

if.then33:                                        ; preds = %if.then28
  %41 = load ptr, ptr %klass, align 8
  %get_dma_as34 = getelementptr inbounds %struct.VirtioBusClass, ptr %41, i32 0, i32 22
  %42 = load ptr, ptr %get_dma_as34, align 8
  %43 = load ptr, ptr %qbus, align 8
  %parent35 = getelementptr inbounds %struct.BusState, ptr %43, i32 0, i32 1
  %44 = load ptr, ptr %parent35, align 8
  %call36 = call ptr %42(ptr noundef %44)
  %45 = load ptr, ptr %vdev.addr, align 8
  %dma_as37 = getelementptr inbounds %struct.VirtIODevice, ptr %45, i32 0, i32 29
  store ptr %call36, ptr %dma_as37, align 8
  %46 = load i8, ptr %vdev_has_iommu, align 1
  %tobool38 = trunc i8 %46 to i1
  br i1 %tobool38, label %if.end42, label %land.lhs.true

land.lhs.true:                                    ; preds = %if.then33
  %47 = load ptr, ptr %vdev.addr, align 8
  %dma_as39 = getelementptr inbounds %struct.VirtIODevice, ptr %47, i32 0, i32 29
  %48 = load ptr, ptr %dma_as39, align 8
  %cmp40 = icmp ne ptr %48, @address_space_memory
  br i1 %cmp40, label %if.then41, label %if.end42

if.then41:                                        ; preds = %land.lhs.true
  %49 = load ptr, ptr %errp.addr, align 8
  call void (ptr, ptr, i32, ptr, ptr, ...) @error_setg_internal(ptr noundef %49, ptr noundef @.str.1, i32 noundef 94, ptr noundef @__func__.virtio_bus_device_plugged, ptr noundef @.str.2)
  br label %if.end44

if.end42:                                         ; preds = %land.lhs.true, %if.then33
  br label %if.end43

if.end43:                                         ; preds = %if.end42, %if.then28
  br label %if.end44

if.end44:                                         ; preds = %if.end43, %if.then41, %if.end26, %if.then25, %if.then17, %if.then8
  ret void
}