; Function Attrs: nounwind sspstrong uwtable
define dso_local void @virtio_bus_device_plugged(ptr noundef %vdev, ptr noundef %errp) local_unnamed_addr #0 {
entry:
  %local_err = alloca ptr, align 8
  %call.i = tail call ptr @object_dynamic_cast_assert(ptr noundef %vdev, ptr noundef nonnull @.str.8, ptr noundef nonnull @.str.9, i32 noundef 77, ptr noundef nonnull @__func__.DEVICE) #5
  %call1 = tail call ptr @qdev_get_parent_bus(ptr noundef %call.i) #5
  %call.i30 = tail call ptr @object_dynamic_cast_assert(ptr noundef %call1, ptr noundef nonnull @.str.10, ptr noundef nonnull @.str.9, i32 noundef 316, ptr noundef nonnull @__func__.BUS) #5
  %call.i31 = tail call ptr @object_dynamic_cast_assert(ptr noundef %call.i30, ptr noundef nonnull @.str.11, ptr noundef nonnull @.str.12, i32 noundef 36, ptr noundef nonnull @__func__.VIRTIO_BUS) #5
  %call.i32 = tail call ptr @object_get_class(ptr noundef %call.i31) #5
  %call1.i = tail call ptr @object_class_dynamic_cast_assert(ptr noundef %call.i32, ptr noundef nonnull @.str.11, ptr noundef nonnull @.str.12, i32 noundef 36, ptr noundef nonnull @__func__.VIRTIO_BUS_GET_CLASS) #5
  %call.i33 = tail call ptr @object_get_class(ptr noundef %vdev) #5
  %call1.i34 = tail call ptr @object_class_dynamic_cast_assert(ptr noundef %call.i33, ptr noundef nonnull @.str.13, ptr noundef nonnull @.str.14, i32 noundef 85, ptr noundef nonnull @__func__.VIRTIO_DEVICE_GET_CLASS) #5
  %0 = getelementptr i8, ptr %vdev, i64 176
  %vdev.val = load i64, ptr %0, align 8
  %and.i.i = and i64 %vdev.val, 8589934592
  %tobool.i.i.not = icmp eq i64 %and.i.i, 0
  store ptr null, ptr %local_err, align 8
  %pre_plugged = getelementptr inbounds nuw i8, ptr %call1.i, i64 264
  %1 = load ptr, ptr %pre_plugged, align 8
  %cmp.not = icmp eq ptr %1, null
  br i1 %cmp.not, label %if.end9, label %if.then

if.then:                                          ; preds = %entry
  %parent = getelementptr inbounds nuw i8, ptr %call.i30, i64 40
  %2 = load ptr, ptr %parent, align 8
  call void %1(ptr noundef %2, ptr noundef nonnull %local_err) #5
  %3 = load ptr, ptr %local_err, align 8
  %tobool.not = icmp eq ptr %3, null
  br i1 %tobool.not, label %if.end9, label %if.then8

if.then8:                                         ; preds = %if.then
  call void @error_propagate(ptr noundef %errp, ptr noundef nonnull %3) #5
  br label %if.end44

if.end9:                                          ; preds = %if.then, %entry
  %get_features = getelementptr inbounds nuw i8, ptr %call1.i34, i64 192
  %4 = load ptr, ptr %get_features, align 8
  %cmp10.not = icmp eq ptr %4, null
  br i1 %cmp10.not, label %if.else, label %if.end12

if.else:                                          ; preds = %if.end9
  call void @__assert_fail(ptr noundef nonnull @.str, ptr noundef nonnull @.str.1, i32 noundef 65, ptr noundef nonnull @__PRETTY_FUNCTION__.virtio_bus_device_plugged) #6
  unreachable

if.end12:                                         ; preds = %if.end9
  %5 = load i64, ptr %0, align 8
  %call14 = call i64 %4(ptr noundef nonnull %vdev, i64 noundef %5, ptr noundef nonnull %local_err) #5
  store i64 %call14, ptr %0, align 8
  %6 = load ptr, ptr %local_err, align 8
  %tobool16.not = icmp eq ptr %6, null
  br i1 %tobool16.not, label %if.end18, label %if.then17

if.then17:                                        ; preds = %if.end12
  call void @error_propagate(ptr noundef %errp, ptr noundef nonnull %6) #5
  br label %if.end44

if.end18:                                         ; preds = %if.end12
  %device_plugged = getelementptr inbounds nuw i8, ptr %call1.i, i64 272
  %7 = load ptr, ptr %device_plugged, align 8
  %cmp19.not = icmp eq ptr %7, null
  br i1 %cmp19.not, label %if.end26, label %if.end23

if.end23:                                         ; preds = %if.end18
  %parent22 = getelementptr inbounds nuw i8, ptr %call.i30, i64 40
  %8 = load ptr, ptr %parent22, align 8
  call void %7(ptr noundef %8, ptr noundef nonnull %local_err) #5
  %.pre = load ptr, ptr %local_err, align 8
  %tobool24.not = icmp eq ptr %.pre, null
  br i1 %tobool24.not, label %if.end26, label %if.then25

if.then25:                                        ; preds = %if.end23
  call void @error_propagate(ptr noundef %errp, ptr noundef nonnull %.pre) #5
  br label %if.end44

if.end26:                                         ; preds = %if.end18, %if.end23
  %dma_as = getelementptr inbounds nuw i8, ptr %vdev, i64 472
  store ptr @address_space_memory, ptr %dma_as, align 8
  br i1 %tobool.i.i.not, label %if.end44, label %if.then28

if.then28:                                        ; preds = %if.end26
  %vdev.val29 = load i64, ptr %0, align 8
  %or.i = or i64 %vdev.val29, 8589934592
  store i64 %or.i, ptr %0, align 8
  %get_dma_as = getelementptr inbounds nuw i8, ptr %call1.i, i64 328
  %9 = load ptr, ptr %get_dma_as, align 8
  %tobool32.not = icmp eq ptr %9, null
  br i1 %tobool32.not, label %if.end44, label %if.then33

if.then33:                                        ; preds = %if.then28
  %and.i.i35 = and i64 %vdev.val29, 8589934592
  %tobool.i.i36 = icmp ne i64 %and.i.i35, 0
  %parent35 = getelementptr inbounds nuw i8, ptr %call.i30, i64 40
  %10 = load ptr, ptr %parent35, align 8
  %call36 = call ptr %9(ptr noundef %10) #5
  store ptr %call36, ptr %dma_as, align 8
  %cmp40.not = icmp eq ptr %call36, @address_space_memory
  %or.cond = select i1 %tobool.i.i36, i1 true, i1 %cmp40.not
  br i1 %or.cond, label %if.end44, label %if.then41

if.then41:                                        ; preds = %if.then33
  call void (ptr, ptr, i32, ptr, ptr, ...) @error_setg_internal(ptr noundef %errp, ptr noundef nonnull @.str.1, i32 noundef 94, ptr noundef nonnull @__func__.virtio_bus_device_plugged, ptr noundef nonnull @.str.2) #5
  br label %if.end44

if.end44:                                         ; preds = %if.then28, %if.then33, %if.then41, %if.end26, %if.then25, %if.then17, %if.then8
  ret void
}